target datalayout = "e-m:e-p270:32:32-p271:32:32-p272:64:64-i64:64-i128:128-f80:128-n8:16:32:64-S128"
target triple = "x86_64-pc-linux-gnu"

%struct._generic_N_Vector = type { ptr, ptr, ptr }
%struct._N_VectorContent_Serial = type { i64, i32, ptr }

@.str.23 = private unnamed_addr constant [59 x i8] c"--------------------------------------------------------\0A\0A\00", align 1
@.str.32 = private unnamed_addr constant [53 x i8] c"dG/dy0: \09%12.4e\0A\09\09%12.4e\0A\09\09%12.4e\0A\09\09%12.4e\0A\09\09%12.4e\0A\00", align 1

; Function Attrs: nounwind uwtable
define internal void @PrintOutput(double noundef %0, ptr noundef %1, ptr noundef %2) #0 {
  %4 = alloca double, align 8
  %5 = alloca ptr, align 8
  %6 = alloca ptr, align 8
  store double %0, ptr %4, align 8, !tbaa !4
  store ptr %1, ptr %5, align 8, !tbaa !10
  store ptr %2, ptr %6, align 8, !tbaa !10
  %7 = load ptr, ptr %5, align 8, !tbaa !10
  %8 = getelementptr inbounds nuw %struct._generic_N_Vector, ptr %7, i32 0, i32 0
  %9 = load ptr, ptr %8, align 8, !tbaa !30
  %10 = getelementptr inbounds nuw %struct._N_VectorContent_Serial, ptr %9, i32 0, i32 2
  %11 = load ptr, ptr %10, align 8, !tbaa !33
  %12 = getelementptr inbounds double, ptr %11, i64 0
  %13 = load double, ptr %12, align 8, !tbaa !4
  %14 = load ptr, ptr %5, align 8, !tbaa !10
  %15 = getelementptr inbounds nuw %struct._generic_N_Vector, ptr %14, i32 0, i32 0
  %16 = load ptr, ptr %15, align 8, !tbaa !30
  %17 = getelementptr inbounds nuw %struct._N_VectorContent_Serial, ptr %16, i32 0, i32 2
  %18 = load ptr, ptr %17, align 8, !tbaa !33
  %19 = getelementptr inbounds double, ptr %18, i64 1
  %20 = load double, ptr %19, align 8, !tbaa !4
  %21 = load ptr, ptr %5, align 8, !tbaa !10
  %22 = getelementptr inbounds nuw %struct._generic_N_Vector, ptr %21, i32 0, i32 0
  %23 = load ptr, ptr %22, align 8, !tbaa !30
  %24 = getelementptr inbounds nuw %struct._N_VectorContent_Serial, ptr %23, i32 0, i32 2
  %25 = load ptr, ptr %24, align 8, !tbaa !33
  %26 = getelementptr inbounds double, ptr %25, i64 2
  %27 = load double, ptr %26, align 8, !tbaa !4
  %28 = load ptr, ptr %5, align 8, !tbaa !10
  %29 = getelementptr inbounds nuw %struct._generic_N_Vector, ptr %28, i32 0, i32 0
  %30 = load ptr, ptr %29, align 8, !tbaa !30
  %31 = getelementptr inbounds nuw %struct._N_VectorContent_Serial, ptr %30, i32 0, i32 2
  %32 = load ptr, ptr %31, align 8, !tbaa !33
  %33 = getelementptr inbounds double, ptr %32, i64 3
  %34 = load double, ptr %33, align 8, !tbaa !4
  %35 = load ptr, ptr %5, align 8, !tbaa !10
  %36 = getelementptr inbounds nuw %struct._generic_N_Vector, ptr %35, i32 0, i32 0
  %37 = load ptr, ptr %36, align 8, !tbaa !30
  %38 = getelementptr inbounds nuw %struct._N_VectorContent_Serial, ptr %37, i32 0, i32 2
  %39 = load ptr, ptr %38, align 8, !tbaa !33
  %40 = getelementptr inbounds double, ptr %39, i64 4
  %41 = load double, ptr %40, align 8, !tbaa !4
  %42 = call i32 (ptr, ...) @printf(ptr noundef @.str.32, double noundef %13, double noundef %20, double noundef %27, double noundef %34, double noundef %41)
  %43 = call i32 (ptr, ...) @printf(ptr noundef @.str.23)
  ret void
}