; Function Attrs: nofree nounwind uwtable
define internal fastcc void @PrintOutput(ptr readonly captures(none) %.0.val.16.val) unnamed_addr #7 {
  %1 = load double, ptr %.0.val.16.val, align 8, !tbaa !30
  %2 = getelementptr inbounds nuw i8, ptr %.0.val.16.val, i64 8
  %3 = load double, ptr %2, align 8, !tbaa !30
  %4 = getelementptr inbounds nuw i8, ptr %.0.val.16.val, i64 16
  %5 = load double, ptr %4, align 8, !tbaa !30
  %6 = getelementptr inbounds nuw i8, ptr %.0.val.16.val, i64 24
  %7 = load double, ptr %6, align 8, !tbaa !30
  %8 = getelementptr inbounds nuw i8, ptr %.0.val.16.val, i64 32
  %9 = load double, ptr %8, align 8, !tbaa !30
  %10 = tail call i32 (ptr, ...) @printf(ptr noundef nonnull dereferenceable(1) @.str.32, double noundef %1, double noundef %3, double noundef %5, double noundef %7, double noundef %9)
  %puts = tail call i32 @puts(ptr nonnull dereferenceable(1) @str.5)
  ret void
}